target datalayout = "e-m:e-p270:32:32-p271:32:32-p272:64:64-i64:64-i128:128-f80:128-n8:16:32:64-S128"
target triple = "x86_64-pc-linux-gnu"

%struct.Aig_Obj_t_ = type { %union.anon, ptr, ptr, i64, i32, i32, %union.anon.0 }
%union.anon = type { ptr }
%union.anon.0 = type { ptr }
%struct.Aig_Man_t_ = type { ptr, ptr, ptr, ptr, ptr, ptr, ptr, %struct.Aig_Obj_t_, i32, i32, i32, i32, i32, i32, [7 x i32], i32, ptr, i32, ptr, i32, ptr, i32, i32, i32, ptr, i32, i32, i32, i32, i32, ptr, ptr, i32, ptr, ptr, i32, ptr, ptr, i32, i32, i32, ptr, ptr, ptr, ptr, ptr, ptr, ptr, ptr, ptr, ptr, ptr, ptr, ptr, ptr, i32, ptr, ptr, ptr, ptr, i32, i64, i64, i64, ptr, ptr }
%struct.Vec_Ptr_t_ = type { i32, i32, ptr }

; Function Attrs: inlinehint nounwind uwtable
define internal void @Aig_ManRecycleMemory(ptr noundef %0, ptr noundef %1) #2 {
  %3 = alloca ptr, align 8
  %4 = alloca ptr, align 8
  store ptr %0, ptr %3, align 8, !tbaa !3
  store ptr %1, ptr %4, align 8, !tbaa !8
  %5 = load ptr, ptr %4, align 8, !tbaa !8
  %6 = getelementptr inbounds nuw %struct.Aig_Obj_t_, ptr %5, i32 0, i32 3
  %7 = load i64, ptr %6, align 8
  %8 = and i64 %7, -8
  %9 = or i64 %8, 0
  store i64 %9, ptr %6, align 8
  %10 = load ptr, ptr %3, align 8, !tbaa !3
  %11 = getelementptr inbounds nuw %struct.Aig_Man_t_, ptr %10, i32 0, i32 33
  %12 = load ptr, ptr %11, align 8, !tbaa !24
  %13 = load ptr, ptr %4, align 8, !tbaa !8
  call void @Aig_MmFixedEntryRecycle(ptr noundef %12, ptr noundef %13)
  %14 = load ptr, ptr %3, align 8, !tbaa !3
  %15 = getelementptr inbounds nuw %struct.Aig_Man_t_, ptr %14, i32 0, i32 15
  %16 = load i32, ptr %15, align 4, !tbaa !49
  %17 = add nsw i32 %16, 1
  store i32 %17, ptr %15, align 4, !tbaa !49
  ret void
}

; Function Attrs: inlinehint nounwind uwtable
define internal void @Vec_PtrWriteEntry(ptr noundef %0, i32 noundef %1, ptr noundef %2) #2 {
  %4 = alloca ptr, align 8
  %5 = alloca i32, align 4
  %6 = alloca ptr, align 8
  store ptr %0, ptr %4, align 8, !tbaa !27
  store i32 %1, ptr %5, align 4, !tbaa !23
  store ptr %2, ptr %6, align 8, !tbaa !28
  %7 = load ptr, ptr %6, align 8, !tbaa !28
  %8 = load ptr, ptr %4, align 8, !tbaa !27
  %9 = getelementptr inbounds nuw %struct.Vec_Ptr_t_, ptr %8, i32 0, i32 2
  %10 = load ptr, ptr %9, align 8, !tbaa !32
  %11 = load i32, ptr %5, align 4, !tbaa !23
  %12 = sext i32 %11 to i64
  %13 = getelementptr inbounds ptr, ptr %10, i64 %12
  store ptr %7, ptr %13, align 8, !tbaa !28
  ret void
}

; Function Attrs: inlinehint nounwind uwtable
define internal void @Vec_PtrRemove(ptr noundef %0, ptr noundef %1) #2 {
  %3 = alloca ptr, align 8
  %4 = alloca ptr, align 8
  %5 = alloca i32, align 4
  store ptr %0, ptr %3, align 8, !tbaa !27
  store ptr %1, ptr %4, align 8, !tbaa !28
  call void @llvm.lifetime.start.p0(i64 4, ptr %5) #8
  %6 = load ptr, ptr %3, align 8, !tbaa !27
  %7 = getelementptr inbounds nuw %struct.Vec_Ptr_t_, ptr %6, i32 0, i32 1
  %8 = load i32, ptr %7, align 4, !tbaa !29
  %9 = sub nsw i32 %8, 1
  store i32 %9, ptr %5, align 4, !tbaa !23
  br label %10

10:                                               ; preds = %25, %2
  %11 = load i32, ptr %5, align 4, !tbaa !23
  %12 = icmp sge i32 %11, 0
  br i1 %12, label %13, label %28

13:                                               ; preds = %10
  %14 = load ptr, ptr %3, align 8, !tbaa !27
  %15 = getelementptr inbounds nuw %struct.Vec_Ptr_t_, ptr %14, i32 0, i32 2
  %16 = load ptr, ptr %15, align 8, !tbaa !32
  %17 = load i32, ptr %5, align 4, !tbaa !23
  %18 = sext i32 %17 to i64
  %19 = getelementptr inbounds ptr, ptr %16, i64 %18
  %20 = load ptr, ptr %19, align 8, !tbaa !28
  %21 = load ptr, ptr %4, align 8, !tbaa !28
  %22 = icmp eq ptr %20, %21
  br i1 %22, label %23, label %24

23:                                               ; preds = %13
  br label %28

24:                                               ; preds = %13
  br label %25

25:                                               ; preds = %24
  %26 = load i32, ptr %5, align 4, !tbaa !23
  %27 = add nsw i32 %26, -1
  store i32 %27, ptr %5, align 4, !tbaa !23
  br label %10, !llvm.loop !46

28:                                               ; preds = %23, %10
  %29 = load i32, ptr %5, align 4, !tbaa !23
  %30 = add nsw i32 %29, 1
  store i32 %30, ptr %5, align 4, !tbaa !23
  br label %31

31:                                               ; preds = %52, %28
  %32 = load i32, ptr %5, align 4, !tbaa !23
  %33 = load ptr, ptr %3, align 8, !tbaa !27
  %34 = getelementptr inbounds nuw %struct.Vec_Ptr_t_, ptr %33, i32 0, i32 1
  %35 = load i32, ptr %34, align 4, !tbaa !29
  %36 = icmp slt i32 %32, %35
  br i1 %36, label %37, label %55

37:                                               ; preds = %31
  %38 = load ptr, ptr %3, align 8, !tbaa !27
  %39 = getelementptr inbounds nuw %struct.Vec_Ptr_t_, ptr %38, i32 0, i32 2
  %40 = load ptr, ptr %39, align 8, !tbaa !32
  %41 = load i32, ptr %5, align 4, !tbaa !23
  %42 = sext i32 %41 to i64
  %43 = getelementptr inbounds ptr, ptr %40, i64 %42
  %44 = load ptr, ptr %43, align 8, !tbaa !28
  %45 = load ptr, ptr %3, align 8, !tbaa !27
  %46 = getelementptr inbounds nuw %struct.Vec_Ptr_t_, ptr %45, i32 0, i32 2
  %47 = load ptr, ptr %46, align 8, !tbaa !32
  %48 = load i32, ptr %5, align 4, !tbaa !23
  %49 = sub nsw i32 %48, 1
  %50 = sext i32 %49 to i64
  %51 = getelementptr inbounds ptr, ptr %47, i64 %50
  store ptr %44, ptr %51, align 8, !tbaa !28
  br label %52

52:                                               ; preds = %37
  %53 = load i32, ptr %5, align 4, !tbaa !23
  %54 = add nsw i32 %53, 1
  store i32 %54, ptr %5, align 4, !tbaa !23
  br label %31, !llvm.loop !48

55:                                               ; preds = %31
  %56 = load ptr, ptr %3, align 8, !tbaa !27
  %57 = getelementptr inbounds nuw %struct.Vec_Ptr_t_, ptr %56, i32 0, i32 1
  %58 = load i32, ptr %57, align 4, !tbaa !29
  %59 = add nsw i32 %58, -1
  store i32 %59, ptr %57, align 4, !tbaa !29
  call void @llvm.lifetime.end.p0(i64 4, ptr %5) #8
  ret void
}

; Function Attrs: inlinehint nounwind uwtable
define internal i32 @Aig_ObjIsBuf(ptr noundef %0) #2 {
  %2 = alloca ptr, align 8
  store ptr %0, ptr %2, align 8, !tbaa !8
  %3 = load ptr, ptr %2, align 8, !tbaa !8
  %4 = getelementptr inbounds nuw %struct.Aig_Obj_t_, ptr %3, i32 0, i32 3
  %5 = load i64, ptr %4, align 8
  %6 = and i64 %5, 7
  %7 = trunc i64 %6 to i32
  %8 = icmp eq i32 %7, 4
  %9 = zext i1 %8 to i32
  ret i32 %9
}

; Function Attrs: nounwind uwtable
define void @Aig_ObjDelete(ptr noundef %0, ptr noundef %1) #0 {
  %3 = alloca ptr, align 8
  %4 = alloca ptr, align 8
  store ptr %0, ptr %3, align 8, !tbaa !3
  store ptr %1, ptr %4, align 8, !tbaa !8
  %5 = load ptr, ptr %3, align 8, !tbaa !3
  %6 = getelementptr inbounds nuw %struct.Aig_Man_t_, ptr %5, i32 0, i32 18
  %7 = load ptr, ptr %6, align 8, !tbaa !36
  %8 = icmp ne ptr %7, null
  br i1 %8, label %9, label %18

9:                                                ; preds = %2
  %10 = load ptr, ptr %4, align 8, !tbaa !8
  %11 = call i32 @Aig_ObjIsBuf(ptr noundef %10)
  %12 = icmp ne i32 %11, 0
  br i1 %12, label %13, label %18

13:                                               ; preds = %9
  %14 = load ptr, ptr %3, align 8, !tbaa !3
  %15 = getelementptr inbounds nuw %struct.Aig_Man_t_, ptr %14, i32 0, i32 5
  %16 = load ptr, ptr %15, align 8, !tbaa !45
  %17 = load ptr, ptr %4, align 8, !tbaa !8
  call void @Vec_PtrRemove(ptr noundef %16, ptr noundef %17)
  br label %18

18:                                               ; preds = %13, %9, %2
  %19 = load ptr, ptr %3, align 8, !tbaa !3
  %20 = getelementptr inbounds nuw %struct.Aig_Man_t_, ptr %19, i32 0, i32 14
  %21 = load ptr, ptr %4, align 8, !tbaa !8
  %22 = getelementptr inbounds nuw %struct.Aig_Obj_t_, ptr %21, i32 0, i32 3
  %23 = load i64, ptr %22, align 8
  %24 = and i64 %23, 7
  %25 = trunc i64 %24 to i32
  %26 = zext i32 %25 to i64
  %27 = getelementptr inbounds nuw [7 x i32], ptr %20, i64 0, i64 %26
  %28 = load i32, ptr %27, align 4, !tbaa !23
  %29 = add nsw i32 %28, -1
  store i32 %29, ptr %27, align 4, !tbaa !23
  %30 = load ptr, ptr %3, align 8, !tbaa !3
  %31 = getelementptr inbounds nuw %struct.Aig_Man_t_, ptr %30, i32 0, i32 4
  %32 = load ptr, ptr %31, align 8, !tbaa !25
  %33 = load ptr, ptr %4, align 8, !tbaa !8
  %34 = getelementptr inbounds nuw %struct.Aig_Obj_t_, ptr %33, i32 0, i32 5
  %35 = load i32, ptr %34, align 4, !tbaa !26
  call void @Vec_PtrWriteEntry(ptr noundef %32, i32 noundef %35, ptr noundef null)
  %36 = load ptr, ptr %3, align 8, !tbaa !3
  %37 = load ptr, ptr %4, align 8, !tbaa !8
  call void @Aig_ManRecycleMemory(ptr noundef %36, ptr noundef %37)
  ret void
}