; Function Attrs: nounwind uwtable
define void @Aig_ObjDelete(ptr noundef captures(none) %0, ptr noundef %1) local_unnamed_addr #0 {
  %3 = getelementptr inbounds nuw i8, ptr %0, i64 176
  %4 = load ptr, ptr %3, align 8, !tbaa !33
  %.not = icmp eq ptr %4, null
  br i1 %.not, label %33, label %5

5:                                                ; preds = %2
  %6 = getelementptr i8, ptr %1, i64 24
  %.val = load i64, ptr %6, align 8
  %7 = and i64 %.val, 7
  %.not12 = icmp eq i64 %7, 4
  br i1 %.not12, label %8, label %33

8:                                                ; preds = %5
  %9 = getelementptr inbounds nuw i8, ptr %0, i64 40
  %10 = load ptr, ptr %9, align 8, !tbaa !40
  %11 = getelementptr inbounds nuw i8, ptr %10, i64 4
  %12 = load i32, ptr %11, align 4, !tbaa !22
  %13 = getelementptr inbounds nuw i8, ptr %10, i64 8
  %14 = zext i32 %12 to i64
  %smin.i = tail call i32 @llvm.smin.i32(i32 %12, i32 0)
  br label %15

15:                                               ; preds = %18, %8
  %indvars.iv.i = phi i64 [ %19, %18 ], [ %14, %8 ]
  %16 = trunc nuw i64 %indvars.iv.i to i32
  %17 = icmp sgt i32 %16, 0
  br i1 %17, label %18, label %24

18:                                               ; preds = %15
  %19 = add nsw i64 %indvars.iv.i, -1
  %20 = load ptr, ptr %13, align 8, !tbaa !26
  %21 = getelementptr inbounds nuw ptr, ptr %20, i64 %19
  %22 = load ptr, ptr %21, align 8, !tbaa !27
  %23 = icmp eq ptr %22, %1
  br i1 %23, label %24, label %15, !llvm.loop !41

24:                                               ; preds = %18, %15
  %.0.in.lcssa.i = phi i32 [ %16, %18 ], [ %smin.i, %15 ]
  %25 = icmp slt i32 %.0.in.lcssa.i, %12
  br i1 %25, label %.lr.ph.i, label %Vec_PtrRemove.exit

.lr.ph.i:                                         ; preds = %24
  %26 = sext i32 %.0.in.lcssa.i to i64
  %wide.trip.count.i = sext i32 %12 to i64
  br label %27

27:                                               ; preds = %27, %.lr.ph.i
  %indvars.iv18.i = phi i64 [ %26, %.lr.ph.i ], [ %indvars.iv.next19.i, %27 ]
  %28 = load ptr, ptr %13, align 8, !tbaa !26
  %29 = getelementptr inbounds ptr, ptr %28, i64 %indvars.iv18.i
  %30 = load ptr, ptr %29, align 8, !tbaa !27
  %31 = getelementptr i8, ptr %29, i64 -8
  store ptr %30, ptr %31, align 8, !tbaa !27
  %indvars.iv.next19.i = add nsw i64 %indvars.iv18.i, 1
  %exitcond.not.i = icmp eq i64 %indvars.iv.next19.i, %wide.trip.count.i
  br i1 %exitcond.not.i, label %Vec_PtrRemove.exit, label %27, !llvm.loop !43

Vec_PtrRemove.exit:                               ; preds = %27, %24
  %32 = add nsw i32 %12, -1
  store i32 %32, ptr %11, align 4, !tbaa !22
  br label %33

33:                                               ; preds = %Vec_PtrRemove.exit, %5, %2
  %34 = getelementptr inbounds nuw i8, ptr %0, i64 128
  %35 = getelementptr inbounds nuw i8, ptr %1, i64 24
  %36 = load i64, ptr %35, align 8
  %37 = and i64 %36, 7
  %38 = getelementptr inbounds nuw [7 x i32], ptr %34, i64 0, i64 %37
  %39 = load i32, ptr %38, align 4, !tbaa !29
  %40 = add nsw i32 %39, -1
  store i32 %40, ptr %38, align 4, !tbaa !29
  %41 = getelementptr inbounds nuw i8, ptr %0, i64 32
  %42 = load ptr, ptr %41, align 8, !tbaa !21
  %43 = getelementptr inbounds nuw i8, ptr %1, i64 36
  %44 = load i32, ptr %43, align 4, !tbaa !24
  %45 = getelementptr i8, ptr %42, i64 8
  %.val11 = load ptr, ptr %45, align 8, !tbaa !26
  %46 = sext i32 %44 to i64
  %47 = getelementptr inbounds ptr, ptr %.val11, i64 %46
  store ptr null, ptr %47, align 8, !tbaa !27
  %48 = load i64, ptr %35, align 8
  %49 = and i64 %48, -8
  store i64 %49, ptr %35, align 8
  %50 = getelementptr inbounds nuw i8, ptr %0, i64 272
  %51 = load ptr, ptr %50, align 8, !tbaa !3
  tail call void @Aig_MmFixedEntryRecycle(ptr noundef %51, ptr noundef %1) #11
  %52 = getelementptr inbounds nuw i8, ptr %0, i64 156
  %53 = load i32, ptr %52, align 4, !tbaa !44
  %54 = add nsw i32 %53, 1
  store i32 %54, ptr %52, align 4, !tbaa !44
  ret void
}